target datalayout = "e-m:e-p270:32:32-p271:32:32-p272:64:64-i64:64-i128:128-f80:128-n8:16:32:64-S128"
target triple = "x86_64-pc-linux-gnu"

%struct.malloc_chunk = type { i64, i64, ptr, ptr }

; Function Attrs: nounwind uwtable
define hidden i64 @mspace_usable_size(ptr noundef %0) #0 {
  %2 = alloca i64, align 8
  %3 = alloca ptr, align 8
  %4 = alloca ptr, align 8
  %5 = alloca i32, align 4
  store ptr %0, ptr %3, align 8, !tbaa !16
  %6 = load ptr, ptr %3, align 8, !tbaa !16
  %7 = icmp ne ptr %6, null
  br i1 %7, label %8, label %32

8:                                                ; preds = %1
  call void @llvm.lifetime.start.p0(i64 8, ptr %4) #9
  %9 = load ptr, ptr %3, align 8, !tbaa !16
  %10 = getelementptr inbounds i8, ptr %9, i64 -16
  store ptr %10, ptr %4, align 8, !tbaa !16
  %11 = load ptr, ptr %4, align 8, !tbaa !16
  %12 = getelementptr inbounds nuw %struct.malloc_chunk, ptr %11, i32 0, i32 1
  %13 = load i64, ptr %12, align 8, !tbaa !21
  %14 = and i64 %13, 3
  %15 = icmp ne i64 %14, 1
  br i1 %15, label %16, label %28

16:                                               ; preds = %8
  %17 = load ptr, ptr %4, align 8, !tbaa !16
  %18 = getelementptr inbounds nuw %struct.malloc_chunk, ptr %17, i32 0, i32 1
  %19 = load i64, ptr %18, align 8, !tbaa !21
  %20 = and i64 %19, -8
  %21 = load ptr, ptr %4, align 8, !tbaa !16
  %22 = getelementptr inbounds nuw %struct.malloc_chunk, ptr %21, i32 0, i32 1
  %23 = load i64, ptr %22, align 8, !tbaa !21
  %24 = and i64 %23, 3
  %25 = icmp eq i64 %24, 0
  %26 = select i1 %25, i64 16, i64 8
  %27 = sub i64 %20, %26
  store i64 %27, ptr %2, align 8
  store i32 1, ptr %5, align 4
  br label %29

28:                                               ; preds = %8
  store i32 0, ptr %5, align 4
  br label %29

29:                                               ; preds = %28, %16
  call void @llvm.lifetime.end.p0(i64 8, ptr %4) #9
  %30 = load i32, ptr %5, align 4
  switch i32 %30, label %35 [
    i32 0, label %31
    i32 1, label %33
  ]

31:                                               ; preds = %29
  br label %32

32:                                               ; preds = %31, %1
  store i64 0, ptr %2, align 8
  br label %33

33:                                               ; preds = %32, %29
  %34 = load i64, ptr %2, align 8
  ret i64 %34

35:                                               ; preds = %29
  unreachable
}