; Function Attrs: mustprogress nofree norecurse nosync nounwind willreturn memory(argmem: read) uwtable
define hidden i64 @mspace_usable_size(ptr noundef readonly %0) local_unnamed_addr #11 {
  %.not = icmp eq ptr %0, null
  br i1 %.not, label %9, label %2

2:                                                ; preds = %1
  %3 = getelementptr inbounds i8, ptr %0, i64 -8
  %4 = load i64, ptr %3, align 8, !tbaa !23
  %5 = and i64 %4, 3
  %.not9.not = icmp eq i64 %5, 1
  %6 = and i64 %4, -8
  %7 = icmp eq i64 %5, 0
  %.neg = select i1 %7, i64 -16, i64 -8
  %8 = add i64 %.neg, %6
  br i1 %.not9.not, label %9, label %10

9:                                                ; preds = %2, %1
  br label %10

10:                                               ; preds = %2, %9
  %.1 = phi i64 [ %8, %2 ], [ 0, %9 ]
  ret i64 %.1
}